target datalayout = "e-m:e-p270:32:32-p271:32:32-p272:64:64-i64:64-i128:128-f80:128-n8:16:32:64-S128"
target triple = "x86_64-pc-linux-gnu"

%"class.llvm::ValueMapper" = type { ptr }
%"class.(anonymous namespace)::Mapper" = type { i32, ptr, i32, %"class.llvm::SmallVector", %"class.llvm::SmallVector.0", %"class.llvm::SmallVector.5", %"class.llvm::SmallVector.10" }
%"class.llvm::SmallVector" = type { %"class.llvm::SmallVectorImpl", %"struct.llvm::SmallVectorStorage" }
%"class.llvm::SmallVectorImpl" = type { %"class.llvm::SmallVectorTemplateBase" }
%"class.llvm::SmallVectorTemplateBase" = type { %"class.llvm::SmallVectorTemplateCommon" }
%"class.llvm::SmallVectorTemplateCommon" = type { %"class.llvm::SmallVectorBase" }
%"class.llvm::SmallVectorBase" = type { ptr, i32, i32 }
%"struct.llvm::SmallVectorStorage" = type { [32 x i8] }
%"class.llvm::SmallVector.0" = type { %"class.llvm::SmallVectorImpl.1", %"struct.llvm::SmallVectorStorage.4" }
%"class.llvm::SmallVectorImpl.1" = type { %"class.llvm::SmallVectorTemplateBase.2" }
%"class.llvm::SmallVectorTemplateBase.2" = type { %"class.llvm::SmallVectorTemplateCommon.3" }
%"class.llvm::SmallVectorTemplateCommon.3" = type { %"class.llvm::SmallVectorBase" }
%"struct.llvm::SmallVectorStorage.4" = type { [96 x i8] }
%"class.llvm::SmallVector.5" = type { %"class.llvm::SmallVectorImpl.6", %"struct.llvm::SmallVectorStorage.9" }
%"class.llvm::SmallVectorImpl.6" = type { %"class.llvm::SmallVectorTemplateBase.7" }
%"class.llvm::SmallVectorTemplateBase.7" = type { %"class.llvm::SmallVectorTemplateCommon.8" }
%"class.llvm::SmallVectorTemplateCommon.8" = type { %"class.llvm::SmallVectorBase" }
%"struct.llvm::SmallVectorStorage.9" = type { [16 x i8] }
%"class.llvm::SmallVector.10" = type { %"class.llvm::SmallVectorImpl.11", %"struct.llvm::SmallVectorStorage.14" }
%"class.llvm::SmallVectorImpl.11" = type { %"class.llvm::SmallVectorTemplateBase.12" }
%"class.llvm::SmallVectorTemplateBase.12" = type { %"class.llvm::SmallVectorTemplateCommon.13" }
%"class.llvm::SmallVectorTemplateCommon.13" = type { %"class.llvm::SmallVectorBase" }
%"struct.llvm::SmallVectorStorage.14" = type { [128 x i8] }
%"class.llvm::ArrayRef" = type { ptr, i64 }
%"struct.(anonymous namespace)::WorklistEntry" = type { i32, i32, %union.anon }
%union.anon = type { %"struct.(anonymous namespace)::WorklistEntry::GVInitTy" }
%"struct.(anonymous namespace)::WorklistEntry::GVInitTy" = type { ptr, ptr }
%"struct.(anonymous namespace)::WorklistEntry::AppendingGVTy" = type { ptr, ptr }

; Function Attrs: mustprogress nounwind uwtable
define linkonce_odr hidden noundef ptr @_ZNK4llvm8ArrayRefIPNS_8ConstantEE3endEv(ptr noundef nonnull align 8 dereferenceable(16) %0) #0 comdat align 2 {
  %2 = alloca ptr, align 8
  store ptr %0, ptr %2, align 8
  %3 = load ptr, ptr %2, align 8
  %4 = getelementptr inbounds nuw %"class.llvm::ArrayRef", ptr %3, i32 0, i32 0
  %5 = load ptr, ptr %4, align 8
  %6 = getelementptr inbounds nuw %"class.llvm::ArrayRef", ptr %3, i32 0, i32 1
  %7 = load i64, ptr %6, align 8
  %8 = getelementptr inbounds ptr, ptr %5, i64 %7
  ret ptr %8
}

; Function Attrs: mustprogress nounwind uwtable
define linkonce_odr hidden noundef ptr @_ZNK4llvm8ArrayRefIPNS_8ConstantEE5beginEv(ptr noundef nonnull align 8 dereferenceable(16) %0) #0 comdat align 2 {
  %2 = alloca ptr, align 8
  store ptr %0, ptr %2, align 8
  %3 = load ptr, ptr %2, align 8
  %4 = getelementptr inbounds nuw %"class.llvm::ArrayRef", ptr %3, i32 0, i32 0
  %5 = load ptr, ptr %4, align 8
  ret ptr %5
}

; Function Attrs: mustprogress nounwind uwtable
define linkonce_odr hidden noundef i64 @_ZNK4llvm8ArrayRefIPNS_8ConstantEE4sizeEv(ptr noundef nonnull align 8 dereferenceable(16) %0) #0 comdat align 2 {
  %2 = alloca ptr, align 8
  store ptr %0, ptr %2, align 8
  %3 = load ptr, ptr %2, align 8
  %4 = getelementptr inbounds nuw %"class.llvm::ArrayRef", ptr %3, i32 0, i32 1
  %5 = load i64, ptr %4, align 8
  ret i64 %5
}

; Function Attrs: mustprogress nounwind uwtable
define internal void @_ZN12_GLOBAL__N_16Mapper28scheduleMapAppendingVariableERN4llvm14GlobalVariableEPNS1_8ConstantEbNS1_8ArrayRefIS5_EEj(ptr noundef nonnull align 8 dereferenceable(360) %0, ptr noundef nonnull align 8 dereferenceable(81) %1, ptr noundef %2, i1 noundef zeroext %3, ptr %4, i64 %5, i32 noundef %6) #0 align 2 {
  %8 = alloca %"class.llvm::ArrayRef", align 8
  %9 = alloca ptr, align 8
  %10 = alloca ptr, align 8
  %11 = alloca ptr, align 8
  %12 = alloca i8, align 1
  %13 = alloca i32, align 4
  %14 = alloca %"struct.(anonymous namespace)::WorklistEntry", align 8
  %15 = getelementptr inbounds nuw { ptr, i64 }, ptr %8, i32 0, i32 0
  store ptr %4, ptr %15, align 8
  %16 = getelementptr inbounds nuw { ptr, i64 }, ptr %8, i32 0, i32 1
  store i64 %5, ptr %16, align 8
  store ptr %0, ptr %9, align 8
  store ptr %1, ptr %10, align 8
  store ptr %2, ptr %11, align 8
  %17 = zext i1 %3 to i8
  store i8 %17, ptr %12, align 1
  store i32 %6, ptr %13, align 4
  %18 = load ptr, ptr %9, align 8
  %19 = load i32, ptr %14, align 8
  %20 = and i32 %19, -4
  %21 = or i32 %20, 1
  store i32 %21, ptr %14, align 8
  %22 = load i32, ptr %13, align 4
  %23 = load i32, ptr %14, align 8
  %24 = and i32 %22, 536870911
  %25 = shl i32 %24, 2
  %26 = and i32 %23, -2147483645
  %27 = or i32 %26, %25
  store i32 %27, ptr %14, align 8
  %28 = load ptr, ptr %10, align 8
  %29 = getelementptr inbounds nuw %"struct.(anonymous namespace)::WorklistEntry", ptr %14, i32 0, i32 2
  %30 = getelementptr inbounds nuw %"struct.(anonymous namespace)::WorklistEntry::AppendingGVTy", ptr %29, i32 0, i32 0
  store ptr %28, ptr %30, align 8
  %31 = load ptr, ptr %11, align 8
  %32 = getelementptr inbounds nuw %"struct.(anonymous namespace)::WorklistEntry", ptr %14, i32 0, i32 2
  %33 = getelementptr inbounds nuw %"struct.(anonymous namespace)::WorklistEntry::AppendingGVTy", ptr %32, i32 0, i32 1
  store ptr %31, ptr %33, align 8
  %34 = load i8, ptr %12, align 1
  %35 = trunc i8 %34 to i1
  %36 = zext i1 %35 to i32
  %37 = load i32, ptr %14, align 8
  %38 = and i32 %36, 1
  %39 = shl i32 %38, 31
  %40 = and i32 %37, 2147483647
  %41 = or i32 %40, %39
  store i32 %41, ptr %14, align 8
  %42 = call noundef i64 @_ZNK4llvm8ArrayRefIPNS_8ConstantEE4sizeEv(ptr noundef nonnull align 8 dereferenceable(16) %8)
  %43 = trunc i64 %42 to i32
  %44 = getelementptr inbounds nuw %"struct.(anonymous namespace)::WorklistEntry", ptr %14, i32 0, i32 1
  store i32 %43, ptr %44, align 4
  %45 = getelementptr inbounds nuw %"class.(anonymous namespace)::Mapper", ptr %18, i32 0, i32 4
  call void @_ZN4llvm23SmallVectorTemplateBaseIN12_GLOBAL__N_113WorklistEntryELb1EE9push_backERKS2_(ptr noundef nonnull align 8 dereferenceable(16) %45, ptr noundef nonnull align 8 dereferenceable(24) %14)
  %46 = getelementptr inbounds nuw %"class.(anonymous namespace)::Mapper", ptr %18, i32 0, i32 6
  %47 = call noundef ptr @_ZNK4llvm8ArrayRefIPNS_8ConstantEE5beginEv(ptr noundef nonnull align 8 dereferenceable(16) %8)
  %48 = call noundef ptr @_ZNK4llvm8ArrayRefIPNS_8ConstantEE3endEv(ptr noundef nonnull align 8 dereferenceable(16) %8)
  call void @_ZN4llvm15SmallVectorImplIPNS_8ConstantEE6appendIPKS2_vEEvT_S7_(ptr noundef nonnull align 8 dereferenceable(16) %46, ptr noundef %47, ptr noundef %48)
  ret void
}

; Function Attrs: mustprogress nounwind uwtable
define internal noundef ptr @_ZL11getAsMapperPv(ptr noundef %0) #0 {
  %2 = alloca ptr, align 8
  store ptr %0, ptr %2, align 8
  %3 = load ptr, ptr %2, align 8
  ret ptr %3
}

; Function Attrs: mustprogress nounwind uwtable
define dso_local void @_ZN4llvm11ValueMapper28scheduleMapAppendingVariableERNS_14GlobalVariableEPNS_8ConstantEbNS_8ArrayRefIS4_EEj(ptr noundef nonnull align 8 dereferenceable(8) %0, ptr noundef nonnull align 8 dereferenceable(81) %1, ptr noundef %2, i1 noundef zeroext %3, ptr %4, i64 %5, i32 noundef %6) #0 align 2 {
  %8 = alloca %"class.llvm::ArrayRef", align 8
  %9 = alloca ptr, align 8
  %10 = alloca ptr, align 8
  %11 = alloca ptr, align 8
  %12 = alloca i8, align 1
  %13 = alloca i32, align 4
  %14 = alloca %"class.llvm::ArrayRef", align 8
  %15 = getelementptr inbounds nuw { ptr, i64 }, ptr %8, i32 0, i32 0
  store ptr %4, ptr %15, align 8
  %16 = getelementptr inbounds nuw { ptr, i64 }, ptr %8, i32 0, i32 1
  store i64 %5, ptr %16, align 8
  store ptr %0, ptr %9, align 8
  store ptr %1, ptr %10, align 8
  store ptr %2, ptr %11, align 8
  %17 = zext i1 %3 to i8
  store i8 %17, ptr %12, align 1
  store i32 %6, ptr %13, align 4
  %18 = load ptr, ptr %9, align 8
  %19 = getelementptr inbounds nuw %"class.llvm::ValueMapper", ptr %18, i32 0, i32 0
  %20 = load ptr, ptr %19, align 8
  %21 = call noundef ptr @_ZL11getAsMapperPv(ptr noundef %20)
  %22 = load ptr, ptr %10, align 8
  %23 = load ptr, ptr %11, align 8
  %24 = load i8, ptr %12, align 1
  %25 = trunc i8 %24 to i1
  call void @llvm.memcpy.p0.p0.i64(ptr align 8 %14, ptr align 8 %8, i64 16, i1 false)
  %26 = load i32, ptr %13, align 4
  %27 = getelementptr inbounds nuw { ptr, i64 }, ptr %14, i32 0, i32 0
  %28 = load ptr, ptr %27, align 8
  %29 = getelementptr inbounds nuw { ptr, i64 }, ptr %14, i32 0, i32 1
  %30 = load i64, ptr %29, align 8
  call void @_ZN12_GLOBAL__N_16Mapper28scheduleMapAppendingVariableERN4llvm14GlobalVariableEPNS1_8ConstantEbNS1_8ArrayRefIS5_EEj(ptr noundef nonnull align 8 dereferenceable(360) %21, ptr noundef nonnull align 8 dereferenceable(81) %22, ptr noundef %23, i1 noundef zeroext %25, ptr %28, i64 %30, i32 noundef %26)
  ret void
}