; Function Attrs: mustprogress nounwind uwtable
define dso_local void @_ZN4llvm11ValueMapper28scheduleMapAppendingVariableERNS_14GlobalVariableEPNS_8ConstantEbNS_8ArrayRefIS4_EEj(ptr nocapture noundef nonnull readonly align 8 dereferenceable(8) %0, ptr noundef nonnull align 8 dereferenceable(81) %1, ptr noundef %2, i1 noundef zeroext %3, ptr %4, i64 %5, i32 noundef %6) local_unnamed_addr #1 align 2 {
  %8 = alloca %"struct.(anonymous namespace)::WorklistEntry", align 8
  %9 = load ptr, ptr %0, align 8
  call void @llvm.lifetime.start.p0(i64 24, ptr nonnull %8)
  %10 = shl i32 %6, 2
  %11 = and i32 %10, 2147483644
  %12 = getelementptr inbounds nuw i8, ptr %8, i64 8
  store ptr %1, ptr %12, align 8
  %13 = getelementptr inbounds i8, ptr %8, i64 16
  store ptr %2, ptr %13, align 8
  %14 = select i1 %3, i32 -2147483647, i32 1
  %15 = or disjoint i32 %14, %11
  store i32 %15, ptr %8, align 8
  %16 = trunc i64 %5 to i32
  %17 = getelementptr inbounds nuw i8, ptr %8, i64 4
  store i32 %16, ptr %17, align 4
  %18 = getelementptr inbounds nuw i8, ptr %9, i64 72
  call fastcc void @_ZN4llvm23SmallVectorTemplateBaseIN12_GLOBAL__N_113WorklistEntryELb1EE9push_backERKS2_(ptr noundef nonnull align 8 dereferenceable(16) %18, ptr noundef nonnull align 8 dereferenceable(24) %8)
  %19 = getelementptr inbounds nuw i8, ptr %9, i64 216
  %20 = getelementptr inbounds ptr, ptr %4, i64 %5
  call void @_ZN4llvm15SmallVectorImplIPNS_8ConstantEE6appendIPKS2_vEEvT_S7_(ptr noundef nonnull align 8 dereferenceable(16) %19, ptr noundef %4, ptr noundef %20)
  call void @llvm.lifetime.end.p0(i64 24, ptr nonnull %8)
  ret void
}